target datalayout = "e-m:e-p270:32:32-p271:32:32-p272:64:64-i64:64-i128:128-f80:128-n8:16:32:64-S128"
target triple = "x86_64-pc-linux-gnu"

; Function Attrs: mustprogress nounwind uwtable
define linkonce_odr dso_local noundef zeroext i1 @_Z9cmIsSpacec(i8 noundef signext %0) #4 comdat {
  %2 = alloca i8, align 1
  store i8 %0, ptr %2, align 1
  %3 = load i8, ptr %2, align 1
  %4 = zext i8 %3 to i32
  %5 = call i32 @isspace(i32 noundef %4) #20
  %6 = icmp ne i32 %5, 0
  ret i1 %6
}

; Function Attrs: mustprogress uwtable
define internal void @_ZL18s_RemoveDefineFlagRKNSt7__cxx1112basic_stringIcSt11char_traitsIcESaIcEEERS4_(ptr noundef nonnull align 8 dereferenceable(32) %0, ptr noundef nonnull align 8 dereferenceable(32) %1) #5 {
  %3 = alloca ptr, align 8
  %4 = alloca ptr, align 8
  %5 = alloca i64, align 8
  %6 = alloca i64, align 8
  %7 = alloca i64, align 8
  store ptr %0, ptr %3, align 8
  store ptr %1, ptr %4, align 8
  %8 = load ptr, ptr %3, align 8
  %9 = call noundef i64 @_ZNKSt7__cxx1112basic_stringIcSt11char_traitsIcESaIcEE6lengthEv(ptr noundef nonnull align 8 dereferenceable(32) %8) #3
  store i64 %9, ptr %5, align 8
  %10 = load ptr, ptr %4, align 8
  %11 = load ptr, ptr %3, align 8
  %12 = call noundef i64 @_ZNKSt7__cxx1112basic_stringIcSt11char_traitsIcESaIcEE4findERKS4_m(ptr noundef nonnull align 8 dereferenceable(32) %10, ptr noundef nonnull align 8 dereferenceable(32) %11, i64 noundef 0) #3
  store i64 %12, ptr %6, align 8
  br label %13

13:                                               ; preds = %49, %2
  %14 = load i64, ptr %6, align 8
  %15 = icmp ne i64 %14, -1
  br i1 %15, label %16, label %54

16:                                               ; preds = %13
  %17 = load i64, ptr %6, align 8
  %18 = load i64, ptr %5, align 8
  %19 = add i64 %17, %18
  store i64 %19, ptr %7, align 8
  %20 = load i64, ptr %6, align 8
  %21 = icmp ule i64 %20, 0
  br i1 %21, label %29, label %22

22:                                               ; preds = %16
  %23 = load ptr, ptr %4, align 8
  %24 = load i64, ptr %6, align 8
  %25 = sub i64 %24, 1
  %26 = call noundef nonnull align 1 dereferenceable(1) ptr @_ZNSt7__cxx1112basic_stringIcSt11char_traitsIcESaIcEEixEm(ptr noundef nonnull align 8 dereferenceable(32) %23, i64 noundef %25)
  %27 = load i8, ptr %26, align 1
  %28 = call noundef zeroext i1 @_Z9cmIsSpacec(i8 noundef signext %27)
  br i1 %28, label %29, label %45

29:                                               ; preds = %22, %16
  %30 = load i64, ptr %7, align 8
  %31 = load ptr, ptr %4, align 8
  %32 = call noundef i64 @_ZNKSt7__cxx1112basic_stringIcSt11char_traitsIcESaIcEE4sizeEv(ptr noundef nonnull align 8 dereferenceable(32) %31) #3
  %33 = icmp uge i64 %30, %32
  br i1 %33, label %40, label %34

34:                                               ; preds = %29
  %35 = load ptr, ptr %4, align 8
  %36 = load i64, ptr %7, align 8
  %37 = call noundef nonnull align 1 dereferenceable(1) ptr @_ZNSt7__cxx1112basic_stringIcSt11char_traitsIcESaIcEEixEm(ptr noundef nonnull align 8 dereferenceable(32) %35, i64 noundef %36)
  %38 = load i8, ptr %37, align 1
  %39 = call noundef zeroext i1 @_Z9cmIsSpacec(i8 noundef signext %38)
  br i1 %39, label %40, label %45

40:                                               ; preds = %34, %29
  %41 = load ptr, ptr %4, align 8
  %42 = load i64, ptr %6, align 8
  %43 = load i64, ptr %5, align 8
  %44 = call noundef nonnull align 8 dereferenceable(32) ptr @_ZNSt7__cxx1112basic_stringIcSt11char_traitsIcESaIcEE5eraseEmm(ptr noundef nonnull align 8 dereferenceable(32) %41, i64 noundef %42, i64 noundef %43)
  br label %48

45:                                               ; preds = %34, %22
  %46 = load i64, ptr %6, align 8
  %47 = add i64 %46, 1
  store i64 %47, ptr %6, align 8
  br label %48

48:                                               ; preds = %45, %40
  br label %49

49:                                               ; preds = %48
  %50 = load ptr, ptr %4, align 8
  %51 = load ptr, ptr %3, align 8
  %52 = load i64, ptr %6, align 8
  %53 = call noundef i64 @_ZNKSt7__cxx1112basic_stringIcSt11char_traitsIcESaIcEE4findERKS4_m(ptr noundef nonnull align 8 dereferenceable(32) %50, ptr noundef nonnull align 8 dereferenceable(32) %51, i64 noundef %52) #3
  store i64 %53, ptr %6, align 8
  br label %13, !llvm.loop !12

54:                                               ; preds = %13
  ret void
}