; Function Attrs: mustprogress uwtable
define internal fastcc void @_ZL18s_RemoveDefineFlagRKNSt7__cxx1112basic_stringIcSt11char_traitsIcESaIcEEERS4_(ptr noundef nonnull align 8 dereferenceable(32) %0, ptr noundef nonnull align 8 dereferenceable(32) %1) unnamed_addr #4 {
  %3 = tail call noundef i64 @_ZNKSt7__cxx1112basic_stringIcSt11char_traitsIcESaIcEE6lengthEv(ptr noundef nonnull align 8 dereferenceable(32) %0) #29
  %4 = tail call noundef i64 @_ZNKSt7__cxx1112basic_stringIcSt11char_traitsIcESaIcEE4findERKS4_m(ptr noundef nonnull align 8 dereferenceable(32) %1, ptr noundef nonnull align 8 dereferenceable(32) %0, i64 noundef 0) #29
  %.not23 = icmp eq i64 %4, -1
  br i1 %.not23, label %._crit_edge, label %.lr.ph

.lr.ph:                                           ; preds = %2, %24
  %.024 = phi i64 [ %25, %24 ], [ %4, %2 ]
  %5 = add i64 %.024, %3
  %6 = icmp eq i64 %.024, 0
  br i1 %6, label %13, label %7

7:                                                ; preds = %.lr.ph
  %8 = add i64 %.024, -1
  %9 = tail call noundef nonnull align 1 dereferenceable(1) ptr @_ZNSt7__cxx1112basic_stringIcSt11char_traitsIcESaIcEEixEm(ptr noundef nonnull align 8 dereferenceable(32) %1, i64 noundef %8)
  %10 = load i8, ptr %9, align 1
  %11 = zext i8 %10 to i32
  %12 = tail call i32 @isspace(i32 noundef %11) #34
  %.not21 = icmp eq i32 %12, 0
  br i1 %.not21, label %22, label %13

13:                                               ; preds = %7, %.lr.ph
  %14 = tail call noundef i64 @_ZNKSt7__cxx1112basic_stringIcSt11char_traitsIcESaIcEE4sizeEv(ptr noundef nonnull align 8 dereferenceable(32) %1) #29
  %.not20 = icmp ult i64 %5, %14
  br i1 %.not20, label %15, label %20

15:                                               ; preds = %13
  %16 = tail call noundef nonnull align 1 dereferenceable(1) ptr @_ZNSt7__cxx1112basic_stringIcSt11char_traitsIcESaIcEEixEm(ptr noundef nonnull align 8 dereferenceable(32) %1, i64 noundef %5)
  %17 = load i8, ptr %16, align 1
  %18 = zext i8 %17 to i32
  %19 = tail call i32 @isspace(i32 noundef %18) #34
  %.not22 = icmp eq i32 %19, 0
  br i1 %.not22, label %22, label %20

20:                                               ; preds = %15, %13
  %21 = tail call noundef nonnull align 8 dereferenceable(32) ptr @_ZNSt7__cxx1112basic_stringIcSt11char_traitsIcESaIcEE5eraseEmm(ptr noundef nonnull align 8 dereferenceable(32) %1, i64 noundef %.024, i64 noundef %3)
  br label %24

22:                                               ; preds = %15, %7
  %23 = add nuw i64 %.024, 1
  br label %24

24:                                               ; preds = %20, %22
  %.1 = phi i64 [ %.024, %20 ], [ %23, %22 ]
  %25 = tail call noundef i64 @_ZNKSt7__cxx1112basic_stringIcSt11char_traitsIcESaIcEE4findERKS4_m(ptr noundef nonnull align 8 dereferenceable(32) %1, ptr noundef nonnull align 8 dereferenceable(32) %0, i64 noundef %.1) #29
  %.not = icmp eq i64 %25, -1
  br i1 %.not, label %._crit_edge, label %.lr.ph, !llvm.loop !162

._crit_edge:                                      ; preds = %24, %2
  ret void
}